target datalayout = "e-m:e-p270:32:32-p271:32:32-p272:64:64-i64:64-i128:128-f80:128-n8:16:32:64-S128"
target triple = "x86_64-pc-linux-gnu"

%struct.ossl_quic_tx_packetiser_st = type { %struct.ossl_quic_tx_packetiser_args_st, ptr, i64, ptr, ptr, %struct.quic_fifd_st, [3 x i64], %struct.OSSL_TIME, i64, i16, %struct.ossl_quic_frame_conn_close_st, i64, i64, [4 x %struct.txp_el], ptr, ptr, ptr, ptr, ptr }
%struct.ossl_quic_tx_packetiser_args_st = type { %struct.quic_conn_id_st, %struct.quic_conn_id_st, %union.bio_addr_st, i32, ptr, ptr, ptr, ptr, ptr, ptr, ptr, ptr, ptr, ptr, ptr, ptr, ptr, ptr, ptr, i32, [3 x ptr] }
%struct.quic_conn_id_st = type { i8, [20 x i8] }
%union.bio_addr_st = type { %struct.sockaddr_in6, [84 x i8] }
%struct.sockaddr_in6 = type { i16, i16, i32, %struct.in6_addr, i32 }
%struct.in6_addr = type { %union.anon }
%union.anon = type { [4 x i32] }
%struct.quic_fifd_st = type { ptr, ptr, ptr, ptr, ptr, ptr, ptr, ptr, ptr, ptr, ptr, ptr, ptr }
%struct.OSSL_TIME = type { i64 }
%struct.ossl_quic_frame_conn_close_st = type { i8, i64, i64, ptr, i64 }
%struct.txp_el = type { ptr, i64, ptr, i64 }

@.str = private unnamed_addr constant [31 x i8] c"../openssl/ssl/quic/quic_txp.c\00", align 1
@__func__.ossl_quic_tx_packetiser_new = private unnamed_addr constant [28 x i8] c"ossl_quic_tx_packetiser_new\00", align 1

; Function Attrs: inlinehint nounwind uwtable
define internal i64 @ossl_ticks2time(i64 noundef %0) #4 {
  %2 = alloca %struct.OSSL_TIME, align 8
  %3 = alloca i64, align 8
  store i64 %0, ptr %3, align 8, !tbaa !28
  %4 = load i64, ptr %3, align 8, !tbaa !28
  %5 = getelementptr inbounds nuw %struct.OSSL_TIME, ptr %2, i32 0, i32 0
  store i64 %4, ptr %5, align 8, !tbaa !198
  %6 = getelementptr inbounds nuw %struct.OSSL_TIME, ptr %2, i32 0, i32 0
  %7 = load i64, ptr %6, align 8
  ret i64 %7
}

; Function Attrs: inlinehint nounwind uwtable
define internal i64 @ossl_time_zero() #4 {
  %1 = alloca %struct.OSSL_TIME, align 8
  %2 = call i64 @ossl_ticks2time(i64 noundef 0)
  %3 = getelementptr inbounds nuw %struct.OSSL_TIME, ptr %1, i32 0, i32 0
  store i64 %2, ptr %3, align 8
  %4 = getelementptr inbounds nuw %struct.OSSL_TIME, ptr %1, i32 0, i32 0
  %5 = load i64, ptr %4, align 8
  ret i64 %5
}

; Function Attrs: nounwind uwtable
define ptr @ossl_quic_tx_packetiser_new(ptr noundef %0) #0 {
  %2 = alloca ptr, align 8
  %3 = alloca ptr, align 8
  %4 = alloca ptr, align 8
  %5 = alloca i32, align 4
  %6 = alloca %struct.OSSL_TIME, align 8
  store ptr %0, ptr %3, align 8, !tbaa !29
  call void @llvm.lifetime.start.p0(i64 8, ptr %4) #7
  %7 = load ptr, ptr %3, align 8, !tbaa !29
  %8 = icmp eq ptr %7, null
  br i1 %8, label %59, label %9

9:                                                ; preds = %1
  %10 = load ptr, ptr %3, align 8, !tbaa !29
  %11 = getelementptr inbounds nuw %struct.ossl_quic_tx_packetiser_args_st, ptr %10, i32 0, i32 4
  %12 = load ptr, ptr %11, align 8, !tbaa !31
  %13 = icmp eq ptr %12, null
  br i1 %13, label %59, label %14

14:                                               ; preds = %9
  %15 = load ptr, ptr %3, align 8, !tbaa !29
  %16 = getelementptr inbounds nuw %struct.ossl_quic_tx_packetiser_args_st, ptr %15, i32 0, i32 5
  %17 = load ptr, ptr %16, align 8, !tbaa !32
  %18 = icmp eq ptr %17, null
  br i1 %18, label %59, label %19

19:                                               ; preds = %14
  %20 = load ptr, ptr %3, align 8, !tbaa !29
  %21 = getelementptr inbounds nuw %struct.ossl_quic_tx_packetiser_args_st, ptr %20, i32 0, i32 6
  %22 = load ptr, ptr %21, align 8, !tbaa !33
  %23 = icmp eq ptr %22, null
  br i1 %23, label %59, label %24

24:                                               ; preds = %19
  %25 = load ptr, ptr %3, align 8, !tbaa !29
  %26 = getelementptr inbounds nuw %struct.ossl_quic_tx_packetiser_args_st, ptr %25, i32 0, i32 7
  %27 = load ptr, ptr %26, align 8, !tbaa !34
  %28 = icmp eq ptr %27, null
  br i1 %28, label %59, label %29

29:                                               ; preds = %24
  %30 = load ptr, ptr %3, align 8, !tbaa !29
  %31 = getelementptr inbounds nuw %struct.ossl_quic_tx_packetiser_args_st, ptr %30, i32 0, i32 8
  %32 = load ptr, ptr %31, align 8, !tbaa !35
  %33 = icmp eq ptr %32, null
  br i1 %33, label %59, label %34

34:                                               ; preds = %29
  %35 = load ptr, ptr %3, align 8, !tbaa !29
  %36 = getelementptr inbounds nuw %struct.ossl_quic_tx_packetiser_args_st, ptr %35, i32 0, i32 9
  %37 = load ptr, ptr %36, align 8, !tbaa !36
  %38 = icmp eq ptr %37, null
  br i1 %38, label %59, label %39

39:                                               ; preds = %34
  %40 = load ptr, ptr %3, align 8, !tbaa !29
  %41 = getelementptr inbounds nuw %struct.ossl_quic_tx_packetiser_args_st, ptr %40, i32 0, i32 10
  %42 = load ptr, ptr %41, align 8, !tbaa !37
  %43 = icmp eq ptr %42, null
  br i1 %43, label %59, label %44

44:                                               ; preds = %39
  %45 = load ptr, ptr %3, align 8, !tbaa !29
  %46 = getelementptr inbounds nuw %struct.ossl_quic_tx_packetiser_args_st, ptr %45, i32 0, i32 11
  %47 = load ptr, ptr %46, align 8, !tbaa !38
  %48 = icmp eq ptr %47, null
  br i1 %48, label %59, label %49

49:                                               ; preds = %44
  %50 = load ptr, ptr %3, align 8, !tbaa !29
  %51 = getelementptr inbounds nuw %struct.ossl_quic_tx_packetiser_args_st, ptr %50, i32 0, i32 12
  %52 = load ptr, ptr %51, align 8, !tbaa !39
  %53 = icmp eq ptr %52, null
  br i1 %53, label %59, label %54

54:                                               ; preds = %49
  %55 = load ptr, ptr %3, align 8, !tbaa !29
  %56 = getelementptr inbounds nuw %struct.ossl_quic_tx_packetiser_args_st, ptr %55, i32 0, i32 19
  %57 = load i32, ptr %56, align 8, !tbaa !40
  %58 = icmp eq i32 %57, 0
  br i1 %58, label %59, label %60

59:                                               ; preds = %54, %49, %44, %39, %34, %29, %24, %19, %14, %9, %1
  call void @ERR_new()
  call void @ERR_set_debug(ptr noundef @.str, i32 noundef 553, ptr noundef @__func__.ossl_quic_tx_packetiser_new)
  call void (i32, i32, ptr, ...) @ERR_set_error(i32 noundef 20, i32 noundef 786690, ptr noundef null)
  store ptr null, ptr %2, align 8
  store i32 1, ptr %5, align 4
  br label %103

60:                                               ; preds = %54
  %61 = call noalias ptr @CRYPTO_zalloc(i64 noundef 720, ptr noundef @.str, i32 noundef 557)
  store ptr %61, ptr %4, align 8, !tbaa !3
  %62 = load ptr, ptr %4, align 8, !tbaa !3
  %63 = icmp eq ptr %62, null
  br i1 %63, label %64, label %65

64:                                               ; preds = %60
  store ptr null, ptr %2, align 8
  store i32 1, ptr %5, align 4
  br label %103

65:                                               ; preds = %60
  %66 = load ptr, ptr %4, align 8, !tbaa !3
  %67 = getelementptr inbounds nuw %struct.ossl_quic_tx_packetiser_st, ptr %66, i32 0, i32 0
  %68 = load ptr, ptr %3, align 8, !tbaa !29
  call void @llvm.memcpy.p0.p0.i64(ptr align 8 %67, ptr align 8 %68, i64 312, i1 false), !tbaa.struct !41
  %69 = load ptr, ptr %4, align 8, !tbaa !3
  %70 = getelementptr inbounds nuw %struct.ossl_quic_tx_packetiser_st, ptr %69, i32 0, i32 7
  call void @llvm.lifetime.start.p0(i64 8, ptr %6) #7
  %71 = call i64 @ossl_time_zero()
  %72 = getelementptr inbounds nuw %struct.OSSL_TIME, ptr %6, i32 0, i32 0
  store i64 %71, ptr %72, align 8
  call void @llvm.memcpy.p0.p0.i64(ptr align 8 %70, ptr align 8 %6, i64 8, i1 false), !tbaa.struct !54
  call void @llvm.lifetime.end.p0(i64 8, ptr %6) #7
  %73 = load ptr, ptr %4, align 8, !tbaa !3
  %74 = getelementptr inbounds nuw %struct.ossl_quic_tx_packetiser_st, ptr %73, i32 0, i32 5
  %75 = load ptr, ptr %4, align 8, !tbaa !3
  %76 = getelementptr inbounds nuw %struct.ossl_quic_tx_packetiser_st, ptr %75, i32 0, i32 0
  %77 = getelementptr inbounds nuw %struct.ossl_quic_tx_packetiser_args_st, ptr %76, i32 0, i32 6
  %78 = load ptr, ptr %77, align 8, !tbaa !55
  %79 = load ptr, ptr %4, align 8, !tbaa !3
  %80 = getelementptr inbounds nuw %struct.ossl_quic_tx_packetiser_st, ptr %79, i32 0, i32 0
  %81 = getelementptr inbounds nuw %struct.ossl_quic_tx_packetiser_args_st, ptr %80, i32 0, i32 7
  %82 = load ptr, ptr %81, align 8, !tbaa !56
  %83 = load ptr, ptr %4, align 8, !tbaa !3
  %84 = getelementptr inbounds nuw %struct.ossl_quic_tx_packetiser_st, ptr %83, i32 0, i32 0
  %85 = getelementptr inbounds nuw %struct.ossl_quic_tx_packetiser_args_st, ptr %84, i32 0, i32 5
  %86 = load ptr, ptr %85, align 8, !tbaa !57
  %87 = load ptr, ptr %4, align 8, !tbaa !3
  %88 = load ptr, ptr %4, align 8, !tbaa !3
  %89 = load ptr, ptr %4, align 8, !tbaa !3
  %90 = load ptr, ptr %4, align 8, !tbaa !3
  %91 = load ptr, ptr %3, align 8, !tbaa !29
  %92 = getelementptr inbounds nuw %struct.ossl_quic_tx_packetiser_args_st, ptr %91, i32 0, i32 17
  %93 = load ptr, ptr %92, align 8, !tbaa !58
  %94 = load ptr, ptr %3, align 8, !tbaa !29
  %95 = getelementptr inbounds nuw %struct.ossl_quic_tx_packetiser_args_st, ptr %94, i32 0, i32 18
  %96 = load ptr, ptr %95, align 8, !tbaa !59
  %97 = call i32 @ossl_quic_fifd_init(ptr noundef %74, ptr noundef %78, ptr noundef %82, ptr noundef %86, ptr noundef @get_sstream_by_id, ptr noundef %87, ptr noundef @on_regen_notify, ptr noundef %88, ptr noundef @on_confirm_notify, ptr noundef %89, ptr noundef @on_sstream_updated, ptr noundef %90, ptr noundef %93, ptr noundef %96)
  %98 = icmp ne i32 %97, 0
  br i1 %98, label %101, label %99

99:                                               ; preds = %65
  %100 = load ptr, ptr %4, align 8, !tbaa !3
  call void @CRYPTO_free(ptr noundef %100, ptr noundef @.str, i32 noundef 572)
  store ptr null, ptr %2, align 8
  store i32 1, ptr %5, align 4
  br label %103

101:                                              ; preds = %65
  %102 = load ptr, ptr %4, align 8, !tbaa !3
  store ptr %102, ptr %2, align 8
  store i32 1, ptr %5, align 4
  br label %103

103:                                              ; preds = %101, %99, %64, %59
  call void @llvm.lifetime.end.p0(i64 8, ptr %4) #7
  %104 = load ptr, ptr %2, align 8
  ret ptr %104
}