; Function Attrs: nounwind uwtable
define ptr @ossl_quic_tx_packetiser_new(ptr noundef readonly captures(address_is_null) %0) local_unnamed_addr #3 {
  %2 = icmp eq ptr %0, null
  br i1 %2, label %43, label %3

3:                                                ; preds = %1
  %4 = getelementptr inbounds nuw i8, ptr %0, i64 160
  %5 = load ptr, ptr %4, align 8, !tbaa !26
  %6 = icmp eq ptr %5, null
  br i1 %6, label %43, label %7

7:                                                ; preds = %3
  %8 = getelementptr inbounds nuw i8, ptr %0, i64 168
  %9 = load ptr, ptr %8, align 8, !tbaa !27
  %10 = icmp eq ptr %9, null
  br i1 %10, label %43, label %11

11:                                               ; preds = %7
  %12 = getelementptr inbounds nuw i8, ptr %0, i64 176
  %13 = load ptr, ptr %12, align 8, !tbaa !28
  %14 = icmp eq ptr %13, null
  br i1 %14, label %43, label %15

15:                                               ; preds = %11
  %16 = getelementptr inbounds nuw i8, ptr %0, i64 184
  %17 = load ptr, ptr %16, align 8, !tbaa !29
  %18 = icmp eq ptr %17, null
  br i1 %18, label %43, label %19

19:                                               ; preds = %15
  %20 = getelementptr inbounds nuw i8, ptr %0, i64 192
  %21 = load ptr, ptr %20, align 8, !tbaa !30
  %22 = icmp eq ptr %21, null
  br i1 %22, label %43, label %23

23:                                               ; preds = %19
  %24 = getelementptr inbounds nuw i8, ptr %0, i64 200
  %25 = load ptr, ptr %24, align 8, !tbaa !31
  %26 = icmp eq ptr %25, null
  br i1 %26, label %43, label %27

27:                                               ; preds = %23
  %28 = getelementptr inbounds nuw i8, ptr %0, i64 208
  %29 = load ptr, ptr %28, align 8, !tbaa !32
  %30 = icmp eq ptr %29, null
  br i1 %30, label %43, label %31

31:                                               ; preds = %27
  %32 = getelementptr inbounds nuw i8, ptr %0, i64 216
  %33 = load ptr, ptr %32, align 8, !tbaa !33
  %34 = icmp eq ptr %33, null
  br i1 %34, label %43, label %35

35:                                               ; preds = %31
  %36 = getelementptr inbounds nuw i8, ptr %0, i64 224
  %37 = load ptr, ptr %36, align 8, !tbaa !34
  %38 = icmp eq ptr %37, null
  br i1 %38, label %43, label %39

39:                                               ; preds = %35
  %40 = getelementptr inbounds nuw i8, ptr %0, i64 280
  %41 = load i32, ptr %40, align 8, !tbaa !35
  %42 = icmp eq i32 %41, 0
  br i1 %42, label %43, label %44

43:                                               ; preds = %39, %35, %31, %27, %23, %19, %15, %11, %7, %3, %1
  tail call void @ERR_new() #10
  tail call void @ERR_set_debug(ptr noundef nonnull @.str, i32 noundef 553, ptr noundef nonnull @__func__.ossl_quic_tx_packetiser_new) #10
  tail call void (i32, i32, ptr, ...) @ERR_set_error(i32 noundef 20, i32 noundef 786690, ptr noundef null) #10
  br label %62

44:                                               ; preds = %39
  %45 = tail call noalias ptr @CRYPTO_zalloc(i64 noundef 720, ptr noundef nonnull @.str, i32 noundef 557) #10
  %46 = icmp eq ptr %45, null
  br i1 %46, label %62, label %47

47:                                               ; preds = %44
  tail call void @llvm.memcpy.p0.p0.i64(ptr noundef nonnull align 8 dereferenceable(312) %45, ptr noundef nonnull align 8 dereferenceable(312) %0, i64 312, i1 false), !tbaa.struct !36
  %48 = getelementptr inbounds nuw i8, ptr %45, i64 472
  store i64 0, ptr %48, align 8, !tbaa !49
  %49 = getelementptr inbounds nuw i8, ptr %45, i64 344
  %50 = getelementptr inbounds nuw i8, ptr %45, i64 176
  %51 = load ptr, ptr %50, align 8, !tbaa !50
  %52 = getelementptr inbounds nuw i8, ptr %45, i64 184
  %53 = load ptr, ptr %52, align 8, !tbaa !51
  %54 = getelementptr inbounds nuw i8, ptr %45, i64 168
  %55 = load ptr, ptr %54, align 8, !tbaa !52
  %56 = getelementptr inbounds nuw i8, ptr %0, i64 264
  %57 = load ptr, ptr %56, align 8, !tbaa !53
  %58 = getelementptr inbounds nuw i8, ptr %0, i64 272
  %59 = load ptr, ptr %58, align 8, !tbaa !54
  %60 = tail call i32 @ossl_quic_fifd_init(ptr noundef nonnull %49, ptr noundef %51, ptr noundef %53, ptr noundef %55, ptr noundef nonnull @get_sstream_by_id, ptr noundef nonnull %45, ptr noundef nonnull @on_regen_notify, ptr noundef nonnull %45, ptr noundef nonnull @on_confirm_notify, ptr noundef nonnull %45, ptr noundef nonnull @on_sstream_updated, ptr noundef nonnull %45, ptr noundef %57, ptr noundef %59) #10
  %.not = icmp eq i32 %60, 0
  br i1 %.not, label %61, label %62

61:                                               ; preds = %47
  tail call void @CRYPTO_free(ptr noundef nonnull %45, ptr noundef nonnull @.str, i32 noundef 572) #10
  br label %62

62:                                               ; preds = %47, %44, %61, %43
  %.0 = phi ptr [ null, %43 ], [ null, %61 ], [ null, %44 ], [ %45, %47 ]
  ret ptr %.0
}